target datalayout = "e-m:e-p270:32:32-p271:32:32-p272:64:64-i64:64-i128:128-f80:128-n8:16:32:64-S128"
target triple = "x86_64-pc-linux-gnu"

%"class.boost::unit_test::basic_cstring" = type { ptr, ptr }
%"class.boost::unit_test::test_unit" = type { i32, %"class.boost::unit_test::basic_cstring", %"class.boost::unit_test::basic_cstring", i64, %"class.boost::unit_test::test_unit::readonly_property62", %"class.boost::unit_test::test_unit::readonly_property63", %"class.boost::unit_test::test_unit::readonly_property66", %"class.boost::unit_test::test_unit::readonly_property64", %"class.boost::unit_test::test_unit::readonly_property69", %"class.boost::unit_test::readwrite_property", %"class.boost::unit_test::readwrite_property", %"class.boost::unit_test::readwrite_property.20", %"class.boost::unit_test::readwrite_property.22", %"class.boost::unit_test::readwrite_property.23", %"class.boost::unit_test::readwrite_property.23", %"class.boost::unit_test::readwrite_property.22", %"class.boost::unit_test::readwrite_property.25", %"class.boost::unit_test::readwrite_property.32" }
%"class.boost::unit_test::test_unit::readonly_property62" = type { %"class.boost::unit_test::readonly_property" }
%"class.boost::unit_test::readonly_property" = type { %"class.boost::unit_test::class_property" }
%"class.boost::unit_test::class_property" = type { i64 }
%"class.boost::unit_test::test_unit::readonly_property63" = type { %"class.boost::unit_test::readonly_property" }
%"class.boost::unit_test::test_unit::readonly_property66" = type { %"class.boost::unit_test::readonly_property.0" }
%"class.boost::unit_test::readonly_property.0" = type { %"class.boost::unit_test::class_property.1" }
%"class.boost::unit_test::class_property.1" = type { %"class.std::vector" }
%"class.std::vector" = type { %"struct.std::_Vector_base" }
%"struct.std::_Vector_base" = type { %"struct.std::_Vector_base<std::__cxx11::basic_string<char>, std::allocator<std::__cxx11::basic_string<char>>>::_Vector_impl" }
%"struct.std::_Vector_base<std::__cxx11::basic_string<char>, std::allocator<std::__cxx11::basic_string<char>>>::_Vector_impl" = type { %"struct.std::_Vector_base<std::__cxx11::basic_string<char>, std::allocator<std::__cxx11::basic_string<char>>>::_Vector_impl_data" }
%"struct.std::_Vector_base<std::__cxx11::basic_string<char>, std::allocator<std::__cxx11::basic_string<char>>>::_Vector_impl_data" = type { ptr, ptr, ptr }
%"class.boost::unit_test::test_unit::readonly_property64" = type { %"class.boost::unit_test::readonly_property.2" }
%"class.boost::unit_test::readonly_property.2" = type { %"class.boost::unit_test::class_property.3" }
%"class.boost::unit_test::class_property.3" = type { %"class.std::vector.4" }
%"class.std::vector.4" = type { %"struct.std::_Vector_base.5" }
%"struct.std::_Vector_base.5" = type { %"struct.std::_Vector_base<unsigned long, std::allocator<unsigned long>>::_Vector_impl" }
%"struct.std::_Vector_base<unsigned long, std::allocator<unsigned long>>::_Vector_impl" = type { %"struct.std::_Vector_base<unsigned long, std::allocator<unsigned long>>::_Vector_impl_data" }
%"struct.std::_Vector_base<unsigned long, std::allocator<unsigned long>>::_Vector_impl_data" = type { ptr, ptr, ptr }
%"class.boost::unit_test::test_unit::readonly_property69" = type { %"class.boost::unit_test::readonly_property.9" }
%"class.boost::unit_test::readonly_property.9" = type { %"class.boost::unit_test::class_property.10" }
%"class.boost::unit_test::class_property.10" = type { %"class.std::vector.11" }
%"class.std::vector.11" = type { %"struct.std::_Vector_base.12" }
%"struct.std::_Vector_base.12" = type { %"struct.std::_Vector_base<boost::function<boost::test_tools::assertion_result (unsigned long)>, std::allocator<boost::function<boost::test_tools::assertion_result (unsigned long)>>>::_Vector_impl" }
%"struct.std::_Vector_base<boost::function<boost::test_tools::assertion_result (unsigned long)>, std::allocator<boost::function<boost::test_tools::assertion_result (unsigned long)>>>::_Vector_impl" = type { %"struct.std::_Vector_base<boost::function<boost::test_tools::assertion_result (unsigned long)>, std::allocator<boost::function<boost::test_tools::assertion_result (unsigned long)>>>::_Vector_impl_data" }
%"struct.std::_Vector_base<boost::function<boost::test_tools::assertion_result (unsigned long)>, std::allocator<boost::function<boost::test_tools::assertion_result (unsigned long)>>>::_Vector_impl_data" = type { ptr, ptr, ptr }
%"class.boost::unit_test::readwrite_property" = type { %"class.boost::unit_test::class_property.16" }
%"class.boost::unit_test::class_property.16" = type { %"class.std::__cxx11::basic_string" }
%"class.std::__cxx11::basic_string" = type { %"struct.std::__cxx11::basic_string<char>::_Alloc_hider", i64, %union.anon }
%"struct.std::__cxx11::basic_string<char>::_Alloc_hider" = type { ptr }
%union.anon = type { i64, [8 x i8] }
%"class.boost::unit_test::readwrite_property.20" = type { %"class.boost::unit_test::class_property.21" }
%"class.boost::unit_test::class_property.21" = type { i32 }
%"class.boost::unit_test::readwrite_property.23" = type { %"class.boost::unit_test::class_property.24" }
%"class.boost::unit_test::class_property.24" = type { i32 }
%"class.boost::unit_test::readwrite_property.22" = type { %"class.boost::unit_test::class_property" }
%"class.boost::unit_test::readwrite_property.25" = type { %"class.boost::unit_test::class_property.26" }
%"class.boost::unit_test::class_property.26" = type { %"class.std::vector.27" }
%"class.std::vector.27" = type { %"struct.std::_Vector_base.28" }
%"struct.std::_Vector_base.28" = type { %"struct.std::_Vector_base<boost::shared_ptr<boost::unit_test::decorator::base>, std::allocator<boost::shared_ptr<boost::unit_test::decorator::base>>>::_Vector_impl" }
%"struct.std::_Vector_base<boost::shared_ptr<boost::unit_test::decorator::base>, std::allocator<boost::shared_ptr<boost::unit_test::decorator::base>>>::_Vector_impl" = type { %"struct.std::_Vector_base<boost::shared_ptr<boost::unit_test::decorator::base>, std::allocator<boost::shared_ptr<boost::unit_test::decorator::base>>>::_Vector_impl_data" }
%"struct.std::_Vector_base<boost::shared_ptr<boost::unit_test::decorator::base>, std::allocator<boost::shared_ptr<boost::unit_test::decorator::base>>>::_Vector_impl_data" = type { ptr, ptr, ptr }
%"class.boost::unit_test::readwrite_property.32" = type { %"class.boost::unit_test::class_property.33" }
%"class.boost::unit_test::class_property.33" = type { %"class.std::vector.34" }
%"class.std::vector.34" = type { %"struct.std::_Vector_base.35" }
%"struct.std::_Vector_base.35" = type { %"struct.std::_Vector_base<boost::shared_ptr<boost::unit_test::test_unit_fixture>, std::allocator<boost::shared_ptr<boost::unit_test::test_unit_fixture>>>::_Vector_impl" }
%"struct.std::_Vector_base<boost::shared_ptr<boost::unit_test::test_unit_fixture>, std::allocator<boost::shared_ptr<boost::unit_test::test_unit_fixture>>>::_Vector_impl" = type { %"struct.std::_Vector_base<boost::shared_ptr<boost::unit_test::test_unit_fixture>, std::allocator<boost::shared_ptr<boost::unit_test::test_unit_fixture>>>::_Vector_impl_data" }
%"struct.std::_Vector_base<boost::shared_ptr<boost::unit_test::test_unit_fixture>, std::allocator<boost::shared_ptr<boost::unit_test::test_unit_fixture>>>::_Vector_impl_data" = type { ptr, ptr, ptr }
%"class.std::ios_base" = type { ptr, i64, i64, i32, i32, i32, ptr, %"struct.std::ios_base::_Words", [8 x %"struct.std::ios_base::_Words"], i32, ptr, %"class.std::locale" }
%"struct.std::ios_base::_Words" = type { ptr, i64 }
%"class.std::locale" = type { ptr }

@.str.8 = private unnamed_addr constant [9 x i8] c"TestCase\00", align 1
@.str.9 = private unnamed_addr constant [10 x i8] c"TestSuite\00", align 1
@.str.23 = private unnamed_addr constant [3 x i8] c"</\00", align 1

; Function Attrs: inlinehint mustprogress nounwind uwtable
define linkonce_odr noundef i32 @_ZStorSt12_Ios_IostateS_(i32 noundef %0, i32 noundef %1) #8 comdat {
  %3 = alloca i32, align 4
  %4 = alloca i32, align 4
  store i32 %0, ptr %3, align 4, !tbaa !76
  store i32 %1, ptr %4, align 4, !tbaa !76
  %5 = load i32, ptr %3, align 4, !tbaa !76
  %6 = load i32, ptr %4, align 4, !tbaa !76
  %7 = or i32 %5, %6
  ret i32 %7
}

; Function Attrs: mustprogress nounwind uwtable
define available_externally noundef i32 @_ZNKSt9basic_iosIcSt11char_traitsIcEE7rdstateEv(ptr noundef nonnull align 8 dereferenceable(264) %0) #7 align 2 {
  %2 = alloca ptr, align 8
  store ptr %0, ptr %2, align 8, !tbaa !3
  %3 = load ptr, ptr %2, align 8
  %4 = getelementptr inbounds nuw %"class.std::ios_base", ptr %3, i32 0, i32 5
  %5 = load i32, ptr %4, align 8, !tbaa !77
  ret i32 %5
}

; Function Attrs: mustprogress nounwind uwtable
define linkonce_odr hidden noundef i64 @_ZNKSt8ios_base5widthEv(ptr noundef nonnull align 8 dereferenceable(216) %0) #7 comdat align 2 {
  %2 = alloca ptr, align 8
  store ptr %0, ptr %2, align 8, !tbaa !3
  %3 = load ptr, ptr %2, align 8
  %4 = getelementptr inbounds nuw %"class.std::ios_base", ptr %3, i32 0, i32 2
  %5 = load i64, ptr %4, align 8, !tbaa !70
  ret i64 %5
}

; Function Attrs: mustprogress nounwind uwtable
define linkonce_odr hidden noundef i64 @_ZNSt11char_traitsIcE6lengthEPKc(ptr noundef %0) #7 comdat align 2 {
  %2 = alloca ptr, align 8
  store ptr %0, ptr %2, align 8, !tbaa !3
  %3 = load ptr, ptr %2, align 8, !tbaa !3
  %4 = call i64 @strlen(ptr noundef %3) #3
  ret i64 %4
}

; Function Attrs: mustprogress uwtable
define available_externally void @_ZNSt9basic_iosIcSt11char_traitsIcEE8setstateESt12_Ios_Iostate(ptr noundef nonnull align 8 dereferenceable(264) %0, i32 noundef %1) #4 align 2 {
  %3 = alloca ptr, align 8
  %4 = alloca i32, align 4
  store ptr %0, ptr %3, align 8, !tbaa !3
  store i32 %1, ptr %4, align 4, !tbaa !76
  %5 = load ptr, ptr %3, align 8
  %6 = call noundef i32 @_ZNKSt9basic_iosIcSt11char_traitsIcEE7rdstateEv(ptr noundef nonnull align 8 dereferenceable(264) %5)
  %7 = load i32, ptr %4, align 4, !tbaa !76
  %8 = call noundef i32 @_ZStorSt12_Ios_IostateS_(i32 noundef %6, i32 noundef %7)
  call void @_ZNSt9basic_iosIcSt11char_traitsIcEE5clearESt12_Ios_Iostate(ptr noundef nonnull align 8 dereferenceable(264) %5, i32 noundef %8)
  ret void
}

; Function Attrs: inlinehint mustprogress uwtable
define available_externally noundef nonnull align 8 dereferenceable(8) ptr @_ZStlsISt11char_traitsIcEERSt13basic_ostreamIcT_ES5_c(ptr noundef nonnull align 8 dereferenceable(8) %0, i8 noundef signext %1) #5 {
  %3 = alloca ptr, align 8
  %4 = alloca ptr, align 8
  %5 = alloca i8, align 1
  store ptr %0, ptr %4, align 8, !tbaa !3
  store i8 %1, ptr %5, align 1, !tbaa !69
  %6 = load ptr, ptr %4, align 8, !tbaa !3
  %7 = load ptr, ptr %6, align 8, !tbaa !7
  %8 = getelementptr i8, ptr %7, i64 -24
  %9 = load i64, ptr %8, align 8
  %10 = getelementptr inbounds i8, ptr %6, i64 %9
  %11 = call noundef i64 @_ZNKSt8ios_base5widthEv(ptr noundef nonnull align 8 dereferenceable(216) %10)
  %12 = icmp ne i64 %11, 0
  br i1 %12, label %13, label %16

13:                                               ; preds = %2
  %14 = load ptr, ptr %4, align 8, !tbaa !3
  %15 = call noundef nonnull align 8 dereferenceable(8) ptr @_ZSt16__ostream_insertIcSt11char_traitsIcEERSt13basic_ostreamIT_T0_ES6_PKS3_l(ptr noundef nonnull align 8 dereferenceable(8) %14, ptr noundef %5, i64 noundef 1)
  store ptr %15, ptr %3, align 8
  br label %21

16:                                               ; preds = %2
  %17 = load ptr, ptr %4, align 8, !tbaa !3
  %18 = load i8, ptr %5, align 1, !tbaa !69
  %19 = call noundef nonnull align 8 dereferenceable(8) ptr @_ZNSo3putEc(ptr noundef nonnull align 8 dereferenceable(8) %17, i8 noundef signext %18)
  %20 = load ptr, ptr %4, align 8, !tbaa !3
  store ptr %20, ptr %3, align 8
  br label %21

21:                                               ; preds = %16, %13
  %22 = load ptr, ptr %3, align 8
  ret ptr %22
}

; Function Attrs: inlinehint mustprogress uwtable
define available_externally noundef nonnull align 8 dereferenceable(8) ptr @_ZStlsISt11char_traitsIcEERSt13basic_ostreamIcT_ES5_PKc(ptr noundef nonnull align 8 dereferenceable(8) %0, ptr noundef %1) #5 {
  %3 = alloca ptr, align 8
  %4 = alloca ptr, align 8
  store ptr %0, ptr %3, align 8, !tbaa !3
  store ptr %1, ptr %4, align 8, !tbaa !3
  %5 = load ptr, ptr %4, align 8, !tbaa !3
  %6 = icmp ne ptr %5, null
  br i1 %6, label %13, label %7

7:                                                ; preds = %2
  %8 = load ptr, ptr %3, align 8, !tbaa !3
  %9 = load ptr, ptr %8, align 8, !tbaa !7
  %10 = getelementptr i8, ptr %9, i64 -24
  %11 = load i64, ptr %10, align 8
  %12 = getelementptr inbounds i8, ptr %8, i64 %11
  call void @_ZNSt9basic_iosIcSt11char_traitsIcEE8setstateESt12_Ios_Iostate(ptr noundef nonnull align 8 dereferenceable(264) %12, i32 noundef 1)
  br label %19

13:                                               ; preds = %2
  %14 = load ptr, ptr %3, align 8, !tbaa !3
  %15 = load ptr, ptr %4, align 8, !tbaa !3
  %16 = load ptr, ptr %4, align 8, !tbaa !3
  %17 = call noundef i64 @_ZNSt11char_traitsIcE6lengthEPKc(ptr noundef %16)
  %18 = call noundef nonnull align 8 dereferenceable(8) ptr @_ZSt16__ostream_insertIcSt11char_traitsIcEERSt13basic_ostreamIT_T0_ES6_PKS3_l(ptr noundef nonnull align 8 dereferenceable(8) %14, ptr noundef %15, i64 noundef %17)
  br label %19

19:                                               ; preds = %13, %7
  %20 = load ptr, ptr %3, align 8, !tbaa !3
  ret ptr %20
}

; Function Attrs: mustprogress uwtable
define hidden void @_ZN5boost9unit_test6output20xml_report_formatter23test_unit_report_finishERKNS0_9test_unitERSo(ptr noundef nonnull align 8 dereferenceable(8) %0, ptr noundef nonnull align 8 dereferenceable(280) %1, ptr noundef nonnull align 8 dereferenceable(8) %2) unnamed_addr #4 align 2 {
  %4 = alloca ptr, align 8
  %5 = alloca ptr, align 8
  %6 = alloca ptr, align 8
  store ptr %0, ptr %4, align 8, !tbaa !3
  store ptr %1, ptr %5, align 8, !tbaa !3
  store ptr %2, ptr %6, align 8, !tbaa !3
  %7 = load ptr, ptr %6, align 8, !tbaa !3
  %8 = call noundef nonnull align 8 dereferenceable(8) ptr @_ZStlsISt11char_traitsIcEERSt13basic_ostreamIcT_ES5_PKc(ptr noundef nonnull align 8 dereferenceable(8) %7, ptr noundef @.str.23)
  %9 = load ptr, ptr %5, align 8, !tbaa !3
  %10 = getelementptr inbounds nuw %"class.boost::unit_test::test_unit", ptr %9, i32 0, i32 0
  %11 = load i32, ptr %10, align 8, !tbaa !15
  %12 = icmp eq i32 %11, 1
  %13 = select i1 %12, ptr @.str.8, ptr @.str.9
  %14 = call noundef nonnull align 8 dereferenceable(8) ptr @_ZStlsISt11char_traitsIcEERSt13basic_ostreamIcT_ES5_PKc(ptr noundef nonnull align 8 dereferenceable(8) %8, ptr noundef %13)
  %15 = call noundef nonnull align 8 dereferenceable(8) ptr @_ZStlsISt11char_traitsIcEERSt13basic_ostreamIcT_ES5_c(ptr noundef nonnull align 8 dereferenceable(8) %14, i8 noundef signext 62)
  ret void
}